; ModuleID = 'source-C-CXX/33/1682.cpp'
source_filename = "source-C-CXX/33/1682.cpp"
target datalayout = "e-m:e-p270:32:32-p271:32:32-p272:64:64-i64:64-f80:128-n8:16:32:64-S128"
target triple = "x86_64-pc-linux-gnu"

%"class.std::ios_base::Init" = type { i8 }
%"class.std::basic_ostream" = type { i32 (...)**, %"class.std::basic_ios" }
%"class.std::basic_ios" = type { %"class.std::ios_base", %"class.std::basic_ostream"*, i8, i8, %"class.std::basic_streambuf"*, %"class.std::ctype"*, %"class.std::num_put"*, %"class.std::num_get"* }
%"class.std::ios_base" = type { i32 (...)**, i64, i64, i32, i32, i32, %"struct.std::ios_base::_Callback_list"*, %"struct.std::ios_base::_Words", [8 x %"struct.std::ios_base::_Words"], i32, %"struct.std::ios_base::_Words"*, %"class.std::locale" }
%"struct.std::ios_base::_Callback_list" = type { %"struct.std::ios_base::_Callback_list"*, void (i32, %"class.std::ios_base"*, i32)*, i32, i32 }
%"struct.std::ios_base::_Words" = type { i8*, i64 }
%"class.std::locale" = type { %"class.std::locale::_Impl"* }
%"class.std::locale::_Impl" = type { i32, %"class.std::locale::facet"**, i64, %"class.std::locale::facet"**, i8** }
%"class.std::locale::facet" = type <{ i32 (...)**, i32, [4 x i8] }>
%"class.std::basic_streambuf" = type { i32 (...)**, i8*, i8*, i8*, i8*, i8*, i8*, %"class.std::locale" }
%"class.std::ctype" = type <{ %"class.std::locale::facet.base", [4 x i8], %struct.__locale_struct*, i8, [7 x i8], i32*, i32*, i16*, i8, [256 x i8], [256 x i8], i8, [6 x i8] }>
%"class.std::locale::facet.base" = type <{ i32 (...)**, i32 }>
%struct.__locale_struct = type { [13 x %struct.__locale_data*], i16*, i32*, i32*, [13 x i8*] }
%struct.__locale_data = type opaque
%"class.std::num_put" = type { %"class.std::locale::facet.base", [4 x i8] }
%"class.std::num_get" = type { %"class.std::locale::facet.base", [4 x i8] }
%"class.std::basic_istream" = type { i32 (...)**, i64, %"class.std::basic_ios" }

@_ZStL8__ioinit = internal global %"class.std::ios_base::Init" zeroinitializer, align 1
@__dso_handle = external hidden global i8
@_ZSt4cout = external global %"class.std::basic_ostream", align 8
@.str = private unnamed_addr constant [4 x i8] c"End\00", align 1
@.str.1 = private unnamed_addr constant [4 x i8] c"/2=\00", align 1
@.str.2 = private unnamed_addr constant [6 x i8] c"*3+1=\00", align 1
@_ZSt3cin = external global %"class.std::basic_istream", align 8
@llvm.global_ctors = appending global [1 x { i32, void ()*, i8* }] [{ i32, void ()*, i8* } { i32 65535, void ()* @_GLOBAL__sub_I_1682.cpp, i8* null }]

declare void @_ZNSt8ios_base4InitC1Ev(%"class.std::ios_base::Init"* nonnull align 1 dereferenceable(1)) unnamed_addr #0

; Function Attrs: nounwind
declare void @_ZNSt8ios_base4InitD1Ev(%"class.std::ios_base::Init"* nonnull align 1 dereferenceable(1)) unnamed_addr #1

; Function Attrs: nofree nounwind
declare i32 @__cxa_atexit(void (i8*)*, i8*, i8*) local_unnamed_addr #2

; Function Attrs: mustprogress sspstrong uwtable
define dso_local void @_Z1fi(i32 %0) local_unnamed_addr #3 {
  %2 = icmp eq i32 %0, 1
  br i1 %2, label %3, label %5

3:                                                ; preds = %66, %1
  %4 = tail call nonnull align 8 dereferenceable(8) %"class.std::basic_ostream"* @_ZSt16__ostream_insertIcSt11char_traitsIcEERSt13basic_ostreamIT_T0_ES6_PKS3_l(%"class.std::basic_ostream"* nonnull align 8 dereferenceable(8) @_ZSt4cout, i8* nonnull getelementptr inbounds ([4 x i8], [4 x i8]* @.str, i64 0, i64 0), i64 3)
  ret void

5:                                                ; preds = %1, %66
  %6 = phi i32 [ %68, %66 ], [ %0, %1 ]
  %7 = and i32 %6, 1
  %8 = icmp eq i32 %7, 0
  %9 = tail call nonnull align 8 dereferenceable(8) %"class.std::basic_ostream"* @_ZNSolsEi(%"class.std::basic_ostream"* nonnull align 8 dereferenceable(8) @_ZSt4cout, i32 %6)
  br i1 %8, label %10, label %72

10:                                               ; preds = %5
  %11 = tail call nonnull align 8 dereferenceable(8) %"class.std::basic_ostream"* @_ZSt16__ostream_insertIcSt11char_traitsIcEERSt13basic_ostreamIT_T0_ES6_PKS3_l(%"class.std::basic_ostream"* nonnull align 8 dereferenceable(8) %9, i8* nonnull getelementptr inbounds ([4 x i8], [4 x i8]* @.str.1, i64 0, i64 0), i64 3)
  %12 = sdiv i32 %6, 2
  %13 = tail call nonnull align 8 dereferenceable(8) %"class.std::basic_ostream"* @_ZNSolsEi(%"class.std::basic_ostream"* nonnull align 8 dereferenceable(8) %9, i32 %12)
  %14 = bitcast %"class.std::basic_ostream"* %13 to i8**
  %15 = load i8*, i8** %14, align 8, !tbaa !5
  %16 = getelementptr i8, i8* %15, i64 -24
  %17 = bitcast i8* %16 to i64*
  %18 = load i64, i64* %17, align 8
  %19 = bitcast %"class.std::basic_ostream"* %13 to i8*
  %20 = add nsw i64 %18, 240
  %21 = getelementptr inbounds i8, i8* %19, i64 %20
  %22 = bitcast i8* %21 to %"class.std::ctype"**
  %23 = load %"class.std::ctype"*, %"class.std::ctype"** %22, align 8, !tbaa !8
  %24 = icmp eq %"class.std::ctype"* %23, null
  br i1 %24, label %25, label %26

25:                                               ; preds = %10
  tail call void @_ZSt16__throw_bad_castv() #8
  unreachable

26:                                               ; preds = %10
  %27 = getelementptr inbounds %"class.std::ctype", %"class.std::ctype"* %23, i64 0, i32 8
  %28 = load i8, i8* %27, align 8, !tbaa !13
  %29 = icmp eq i8 %28, 0
  br i1 %29, label %33, label %30

30:                                               ; preds = %26
  %31 = getelementptr inbounds %"class.std::ctype", %"class.std::ctype"* %23, i64 0, i32 9, i64 10
  %32 = load i8, i8* %31, align 1, !tbaa !15
  br label %39

33:                                               ; preds = %26
  tail call void @_ZNKSt5ctypeIcE13_M_widen_initEv(%"class.std::ctype"* nonnull align 8 dereferenceable(570) %23)
  %34 = bitcast %"class.std::ctype"* %23 to i8 (%"class.std::ctype"*, i8)***
  %35 = load i8 (%"class.std::ctype"*, i8)**, i8 (%"class.std::ctype"*, i8)*** %34, align 8, !tbaa !5
  %36 = getelementptr inbounds i8 (%"class.std::ctype"*, i8)*, i8 (%"class.std::ctype"*, i8)** %35, i64 6
  %37 = load i8 (%"class.std::ctype"*, i8)*, i8 (%"class.std::ctype"*, i8)** %36, align 8
  %38 = tail call signext i8 %37(%"class.std::ctype"* nonnull align 8 dereferenceable(570) %23, i8 signext 10)
  br label %39

39:                                               ; preds = %30, %33
  %40 = phi i8 [ %32, %30 ], [ %38, %33 ]
  %41 = tail call nonnull align 8 dereferenceable(8) %"class.std::basic_ostream"* @_ZNSo3putEc(%"class.std::basic_ostream"* nonnull align 8 dereferenceable(8) %13, i8 signext %40)
  %42 = tail call nonnull align 8 dereferenceable(8) %"class.std::basic_ostream"* @_ZNSo5flushEv(%"class.std::basic_ostream"* nonnull align 8 dereferenceable(8) %41)
  %43 = load i8*, i8** bitcast (%"class.std::basic_ostream"* @_ZSt4cout to i8**), align 8, !tbaa !5
  %44 = getelementptr i8, i8* %43, i64 -24
  %45 = bitcast i8* %44 to i64*
  %46 = load i64, i64* %45, align 8
  %47 = add nsw i64 %46, 240
  %48 = getelementptr inbounds i8, i8* bitcast (%"class.std::basic_ostream"* @_ZSt4cout to i8*), i64 %47
  %49 = bitcast i8* %48 to %"class.std::ctype"**
  %50 = load %"class.std::ctype"*, %"class.std::ctype"** %49, align 8, !tbaa !8
  %51 = icmp eq %"class.std::ctype"* %50, null
  br i1 %51, label %52, label %53

52:                                               ; preds = %39
  tail call void @_ZSt16__throw_bad_castv() #8
  unreachable

53:                                               ; preds = %39
  %54 = getelementptr inbounds %"class.std::ctype", %"class.std::ctype"* %50, i64 0, i32 8
  %55 = load i8, i8* %54, align 8, !tbaa !13
  %56 = icmp eq i8 %55, 0
  br i1 %56, label %60, label %57

57:                                               ; preds = %53
  %58 = getelementptr inbounds %"class.std::ctype", %"class.std::ctype"* %50, i64 0, i32 9, i64 10
  %59 = load i8, i8* %58, align 1, !tbaa !15
  br label %66

60:                                               ; preds = %53
  tail call void @_ZNKSt5ctypeIcE13_M_widen_initEv(%"class.std::ctype"* nonnull align 8 dereferenceable(570) %50)
  %61 = bitcast %"class.std::ctype"* %50 to i8 (%"class.std::ctype"*, i8)***
  %62 = load i8 (%"class.std::ctype"*, i8)**, i8 (%"class.std::ctype"*, i8)*** %61, align 8, !tbaa !5
  %63 = getelementptr inbounds i8 (%"class.std::ctype"*, i8)*, i8 (%"class.std::ctype"*, i8)** %62, i64 6
  %64 = load i8 (%"class.std::ctype"*, i8)*, i8 (%"class.std::ctype"*, i8)** %63, align 8
  %65 = tail call signext i8 %64(%"class.std::ctype"* nonnull align 8 dereferenceable(570) %50, i8 signext 10)
  br label %66

66:                                               ; preds = %60, %57, %123, %120
  %67 = phi i8 [ %122, %120 ], [ %128, %123 ], [ %59, %57 ], [ %65, %60 ]
  %68 = phi i32 [ %75, %120 ], [ %75, %123 ], [ %12, %57 ], [ %12, %60 ]
  %69 = tail call nonnull align 8 dereferenceable(8) %"class.std::basic_ostream"* @_ZNSo3putEc(%"class.std::basic_ostream"* nonnull align 8 dereferenceable(8) @_ZSt4cout, i8 signext %67)
  %70 = tail call nonnull align 8 dereferenceable(8) %"class.std::basic_ostream"* @_ZNSo5flushEv(%"class.std::basic_ostream"* nonnull align 8 dereferenceable(8) %69)
  %71 = icmp eq i32 %68, 1
  br i1 %71, label %3, label %5

72:                                               ; preds = %5
  %73 = tail call nonnull align 8 dereferenceable(8) %"class.std::basic_ostream"* @_ZSt16__ostream_insertIcSt11char_traitsIcEERSt13basic_ostreamIT_T0_ES6_PKS3_l(%"class.std::basic_ostream"* nonnull align 8 dereferenceable(8) %9, i8* nonnull getelementptr inbounds ([6 x i8], [6 x i8]* @.str.2, i64 0, i64 0), i64 5)
  %74 = mul nsw i32 %6, 3
  %75 = add nsw i32 %74, 1
  %76 = tail call nonnull align 8 dereferenceable(8) %"class.std::basic_ostream"* @_ZNSolsEi(%"class.std::basic_ostream"* nonnull align 8 dereferenceable(8) %9, i32 %75)
  %77 = bitcast %"class.std::basic_ostream"* %76 to i8**
  %78 = load i8*, i8** %77, align 8, !tbaa !5
  %79 = getelementptr i8, i8* %78, i64 -24
  %80 = bitcast i8* %79 to i64*
  %81 = load i64, i64* %80, align 8
  %82 = bitcast %"class.std::basic_ostream"* %76 to i8*
  %83 = add nsw i64 %81, 240
  %84 = getelementptr inbounds i8, i8* %82, i64 %83
  %85 = bitcast i8* %84 to %"class.std::ctype"**
  %86 = load %"class.std::ctype"*, %"class.std::ctype"** %85, align 8, !tbaa !8
  %87 = icmp eq %"class.std::ctype"* %86, null
  br i1 %87, label %88, label %89

88:                                               ; preds = %72
  tail call void @_ZSt16__throw_bad_castv() #8
  unreachable

89:                                               ; preds = %72
  %90 = getelementptr inbounds %"class.std::ctype", %"class.std::ctype"* %86, i64 0, i32 8
  %91 = load i8, i8* %90, align 8, !tbaa !13
  %92 = icmp eq i8 %91, 0
  br i1 %92, label %96, label %93

93:                                               ; preds = %89
  %94 = getelementptr inbounds %"class.std::ctype", %"class.std::ctype"* %86, i64 0, i32 9, i64 10
  %95 = load i8, i8* %94, align 1, !tbaa !15
  br label %102

96:                                               ; preds = %89
  tail call void @_ZNKSt5ctypeIcE13_M_widen_initEv(%"class.std::ctype"* nonnull align 8 dereferenceable(570) %86)
  %97 = bitcast %"class.std::ctype"* %86 to i8 (%"class.std::ctype"*, i8)***
  %98 = load i8 (%"class.std::ctype"*, i8)**, i8 (%"class.std::ctype"*, i8)*** %97, align 8, !tbaa !5
  %99 = getelementptr inbounds i8 (%"class.std::ctype"*, i8)*, i8 (%"class.std::ctype"*, i8)** %98, i64 6
  %100 = load i8 (%"class.std::ctype"*, i8)*, i8 (%"class.std::ctype"*, i8)** %99, align 8
  %101 = tail call signext i8 %100(%"class.std::ctype"* nonnull align 8 dereferenceable(570) %86, i8 signext 10)
  br label %102

102:                                              ; preds = %93, %96
  %103 = phi i8 [ %95, %93 ], [ %101, %96 ]
  %104 = tail call nonnull align 8 dereferenceable(8) %"class.std::basic_ostream"* @_ZNSo3putEc(%"class.std::basic_ostream"* nonnull align 8 dereferenceable(8) %76, i8 signext %103)
  %105 = tail call nonnull align 8 dereferenceable(8) %"class.std::basic_ostream"* @_ZNSo5flushEv(%"class.std::basic_ostream"* nonnull align 8 dereferenceable(8) %104)
  %106 = load i8*, i8** bitcast (%"class.std::basic_ostream"* @_ZSt4cout to i8**), align 8, !tbaa !5
  %107 = getelementptr i8, i8* %106, i64 -24
  %108 = bitcast i8* %107 to i64*
  %109 = load i64, i64* %108, align 8
  %110 = add nsw i64 %109, 240
  %111 = getelementptr inbounds i8, i8* bitcast (%"class.std::basic_ostream"* @_ZSt4cout to i8*), i64 %110
  %112 = bitcast i8* %111 to %"class.std::ctype"**
  %113 = load %"class.std::ctype"*, %"class.std::ctype"** %112, align 8, !tbaa !8
  %114 = icmp eq %"class.std::ctype"* %113, null
  br i1 %114, label %115, label %116

115:                                              ; preds = %102
  tail call void @_ZSt16__throw_bad_castv() #8
  unreachable

116:                                              ; preds = %102
  %117 = getelementptr inbounds %"class.std::ctype", %"class.std::ctype"* %113, i64 0, i32 8
  %118 = load i8, i8* %117, align 8, !tbaa !13
  %119 = icmp eq i8 %118, 0
  br i1 %119, label %123, label %120

120:                                              ; preds = %116
  %121 = getelementptr inbounds %"class.std::ctype", %"class.std::ctype"* %113, i64 0, i32 9, i64 10
  %122 = load i8, i8* %121, align 1, !tbaa !15
  br label %66

123:                                              ; preds = %116
  tail call void @_ZNKSt5ctypeIcE13_M_widen_initEv(%"class.std::ctype"* nonnull align 8 dereferenceable(570) %113)
  %124 = bitcast %"class.std::ctype"* %113 to i8 (%"class.std::ctype"*, i8)***
  %125 = load i8 (%"class.std::ctype"*, i8)**, i8 (%"class.std::ctype"*, i8)*** %124, align 8, !tbaa !5
  %126 = getelementptr inbounds i8 (%"class.std::ctype"*, i8)*, i8 (%"class.std::ctype"*, i8)** %125, i64 6
  %127 = load i8 (%"class.std::ctype"*, i8)*, i8 (%"class.std::ctype"*, i8)** %126, align 8
  %128 = tail call signext i8 %127(%"class.std::ctype"* nonnull align 8 dereferenceable(570) %113, i8 signext 10)
  br label %66
}

declare nonnull align 8 dereferenceable(8) %"class.std::basic_ostream"* @_ZNSolsEi(%"class.std::basic_ostream"* nonnull align 8 dereferenceable(8), i32) local_unnamed_addr #0

; Function Attrs: mustprogress norecurse sspstrong uwtable
define dso_local i32 @main() local_unnamed_addr #4 {
  %1 = alloca i32, align 4
  %2 = bitcast i32* %1 to i8*
  call void @llvm.lifetime.start.p0i8(i64 4, i8* nonnull %2) #9
  %3 = call nonnull align 8 dereferenceable(16) %"class.std::basic_istream"* @_ZNSirsERi(%"class.std::basic_istream"* nonnull align 8 dereferenceable(16) @_ZSt3cin, i32* nonnull align 4 dereferenceable(4) %1)
  %4 = load i32, i32* %1, align 4, !tbaa !16
  call void @_Z1fi(i32 %4)
  call void @llvm.lifetime.end.p0i8(i64 4, i8* nonnull %2) #9
  ret i32 0
}

; Function Attrs: argmemonly mustprogress nofree nosync nounwind willreturn
declare void @llvm.lifetime.start.p0i8(i64 immarg, i8* nocapture) #5

declare nonnull align 8 dereferenceable(16) %"class.std::basic_istream"* @_ZNSirsERi(%"class.std::basic_istream"* nonnull align 8 dereferenceable(16), i32* nonnull align 4 dereferenceable(4)) local_unnamed_addr #0

; Function Attrs: argmemonly mustprogress nofree nosync nounwind willreturn
declare void @llvm.lifetime.end.p0i8(i64 immarg, i8* nocapture) #5

declare nonnull align 8 dereferenceable(8) %"class.std::basic_ostream"* @_ZSt16__ostream_insertIcSt11char_traitsIcEERSt13basic_ostreamIT_T0_ES6_PKS3_l(%"class.std::basic_ostream"* nonnull align 8 dereferenceable(8), i8*, i64) local_unnamed_addr #0

declare nonnull align 8 dereferenceable(8) %"class.std::basic_ostream"* @_ZNSo3putEc(%"class.std::basic_ostream"* nonnull align 8 dereferenceable(8), i8 signext) local_unnamed_addr #0

declare nonnull align 8 dereferenceable(8) %"class.std::basic_ostream"* @_ZNSo5flushEv(%"class.std::basic_ostream"* nonnull align 8 dereferenceable(8)) local_unnamed_addr #0

; Function Attrs: noreturn
declare void @_ZSt16__throw_bad_castv() local_unnamed_addr #6

declare void @_ZNKSt5ctypeIcE13_M_widen_initEv(%"class.std::ctype"* nonnull align 8 dereferenceable(570)) local_unnamed_addr #0

; Function Attrs: sspstrong uwtable
define internal void @_GLOBAL__sub_I_1682.cpp() #7 section ".text.startup" {
  tail call void @_ZNSt8ios_base4InitC1Ev(%"class.std::ios_base::Init"* nonnull align 1 dereferenceable(1) @_ZStL8__ioinit)
  %1 = tail call i32 @__cxa_atexit(void (i8*)* bitcast (void (%"class.std::ios_base::Init"*)* @_ZNSt8ios_base4InitD1Ev to void (i8*)*), i8* getelementptr inbounds (%"class.std::ios_base::Init", %"class.std::ios_base::Init"* @_ZStL8__ioinit, i64 0, i32 0), i8* nonnull @__dso_handle) #9
  ret void
}


!llvm.module.flags = !{!0, !1, !2, !3}
!llvm.ident = !{!4}

!0 = !{i32 1, !"wchar_size", i32 4}
!1 = !{i32 7, !"PIC Level", i32 2}
!2 = !{i32 7, !"PIE Level", i32 2}
!3 = !{i32 7, !"uwtable", i32 1}
!4 = !{!"clang version 13.0.0"}
!5 = !{!6, !6, i64 0}
!6 = !{!"vtable pointer", !7, i64 0}
!7 = !{!"Simple C++ TBAA"}
!8 = !{!9, !10, i64 240}
!9 = !{!"_ZTSSt9basic_iosIcSt11char_traitsIcEE", !10, i64 216, !11, i64 224, !12, i64 225, !10, i64 232, !10, i64 240, !10, i64 248, !10, i64 256}
!10 = !{!"any pointer", !11, i64 0}
!11 = !{!"omnipotent char", !7, i64 0}
!12 = !{!"bool", !11, i64 0}
!13 = !{!14, !11, i64 56}
!14 = !{!"_ZTSSt5ctypeIcE", !10, i64 16, !12, i64 24, !10, i64 32, !10, i64 40, !10, i64 48, !11, i64 56, !11, i64 57, !11, i64 313, !11, i64 569}
!15 = !{!11, !11, i64 0}
!16 = !{!17, !17, i64 0}
!17 = !{!"int", !11, i64 0}
